#include <math.h>
#include <stdio.h>
#include <stdlib.h>
#include <string.h>

int main()
{
	int n,m,i,j,r,k;
	int a[100][100];
	scanf("%d %d",&m,&n);
	for(i=0;i<m;i++)
		for(j=0;j<n;j++)
			scanf("%d",&a[i][j]);
		printf("\n");
		for(r=0,k=0;;r++)
		{
			for(i=r,j=r;j<=n-r-1;j++)
			{
				k++;
				printf("%d\n",a[i][j]);
			}
			if(k==m*n)break;
			for(i=r+1,j=n-1-r;i<=m-1-r;i++)
			{
				k++;
				printf("%d\n",a[i][j]);
			}
			if(k==m*n)break;
			for(i=m-1-r,j=n-r-2;j>=r;j--)
			{
				k++;
				printf("%d\n",a[i][j]);
			}
			if(k==m*n)break;
			for(i=m-2-r,j=r;i>=r+1;i--)
			{
				k++;
				printf("%d\n",a[i][j]);
			}
			if(k==m*n)break;
		}
	return 0;
}