; ModuleID = '46/3240.c'
source_filename = "46/3240.c"
target datalayout = "e-m:e-p270:32:32-p271:32:32-p272:64:64-i64:64-f80:128-n8:16:32:64-S128"
target triple = "x86_64-pc-linux-gnu"

@.str = private unnamed_addr constant [6 x i8] c"%d %d\00", align 1
@.str.1 = private unnamed_addr constant [3 x i8] c"%d\00", align 1
@.str.2 = private unnamed_addr constant [2 x i8] c"\0A\00", align 1
@.str.3 = private unnamed_addr constant [4 x i8] c"%d\0A\00", align 1

; Function Attrs: noinline nounwind uwtable
define dso_local i32 @main() #0 {
  %1 = alloca i32, align 4
  %2 = alloca i32, align 4
  %3 = alloca i32, align 4
  %4 = alloca i32, align 4
  %5 = alloca i32, align 4
  %6 = alloca i32, align 4
  %7 = alloca i32, align 4
  %8 = alloca [100 x [100 x i32]], align 16
  store i32 0, i32* %1, align 4
  %9 = call i32 (i8*, ...) @__isoc99_scanf(i8* getelementptr inbounds ([6 x i8], [6 x i8]* @.str, i64 0, i64 0), i32* %3, i32* %2)
  store i32 0, i32* %4, align 4
  br label %10

10:                                               ; preds = %31, %0
  %11 = load i32, i32* %4, align 4
  %12 = load i32, i32* %3, align 4
  %13 = icmp slt i32 %11, %12
  br i1 %13, label %14, label %34

14:                                               ; preds = %10
  store i32 0, i32* %5, align 4
  br label %15

15:                                               ; preds = %27, %14
  %16 = load i32, i32* %5, align 4
  %17 = load i32, i32* %2, align 4
  %18 = icmp slt i32 %16, %17
  br i1 %18, label %19, label %30

19:                                               ; preds = %15
  %20 = load i32, i32* %4, align 4
  %21 = sext i32 %20 to i64
  %22 = getelementptr inbounds [100 x [100 x i32]], [100 x [100 x i32]]* %8, i64 0, i64 %21
  %23 = load i32, i32* %5, align 4
  %24 = sext i32 %23 to i64
  %25 = getelementptr inbounds [100 x i32], [100 x i32]* %22, i64 0, i64 %24
  %26 = call i32 (i8*, ...) @__isoc99_scanf(i8* getelementptr inbounds ([3 x i8], [3 x i8]* @.str.1, i64 0, i64 0), i32* %25)
  br label %27

27:                                               ; preds = %19
  %28 = load i32, i32* %5, align 4
  %29 = add nsw i32 %28, 1
  store i32 %29, i32* %5, align 4
  br label %15

30:                                               ; preds = %15
  br label %31

31:                                               ; preds = %30
  %32 = load i32, i32* %4, align 4
  %33 = add nsw i32 %32, 1
  store i32 %33, i32* %4, align 4
  br label %10

34:                                               ; preds = %10
  %35 = call i32 (i8*, ...) @printf(i8* getelementptr inbounds ([2 x i8], [2 x i8]* @.str.2, i64 0, i64 0))
  store i32 0, i32* %6, align 4
  store i32 0, i32* %7, align 4
  br label %36

36:                                               ; preds = %169, %34
  %37 = load i32, i32* %6, align 4
  store i32 %37, i32* %4, align 4
  %38 = load i32, i32* %6, align 4
  store i32 %38, i32* %5, align 4
  br label %39

39:                                               ; preds = %57, %36
  %40 = load i32, i32* %5, align 4
  %41 = load i32, i32* %2, align 4
  %42 = load i32, i32* %6, align 4
  %43 = sub nsw i32 %41, %42
  %44 = sub nsw i32 %43, 1
  %45 = icmp sle i32 %40, %44
  br i1 %45, label %46, label %60

46:                                               ; preds = %39
  %47 = load i32, i32* %7, align 4
  %48 = add nsw i32 %47, 1
  store i32 %48, i32* %7, align 4
  %49 = load i32, i32* %4, align 4
  %50 = sext i32 %49 to i64
  %51 = getelementptr inbounds [100 x [100 x i32]], [100 x [100 x i32]]* %8, i64 0, i64 %50
  %52 = load i32, i32* %5, align 4
  %53 = sext i32 %52 to i64
  %54 = getelementptr inbounds [100 x i32], [100 x i32]* %51, i64 0, i64 %53
  %55 = load i32, i32* %54, align 4
  %56 = call i32 (i8*, ...) @printf(i8* getelementptr inbounds ([4 x i8], [4 x i8]* @.str.3, i64 0, i64 0), i32 %55)
  br label %57

57:                                               ; preds = %46
  %58 = load i32, i32* %5, align 4
  %59 = add nsw i32 %58, 1
  store i32 %59, i32* %5, align 4
  br label %39

60:                                               ; preds = %39
  %61 = load i32, i32* %7, align 4
  %62 = load i32, i32* %3, align 4
  %63 = load i32, i32* %2, align 4
  %64 = mul nsw i32 %62, %63
  %65 = icmp eq i32 %61, %64
  br i1 %65, label %66, label %67

66:                                               ; preds = %60
  br label %172

67:                                               ; preds = %60
  %68 = load i32, i32* %6, align 4
  %69 = add nsw i32 %68, 1
  store i32 %69, i32* %4, align 4
  %70 = load i32, i32* %2, align 4
  %71 = sub nsw i32 %70, 1
  %72 = load i32, i32* %6, align 4
  %73 = sub nsw i32 %71, %72
  store i32 %73, i32* %5, align 4
  br label %74

74:                                               ; preds = %92, %67
  %75 = load i32, i32* %4, align 4
  %76 = load i32, i32* %3, align 4
  %77 = sub nsw i32 %76, 1
  %78 = load i32, i32* %6, align 4
  %79 = sub nsw i32 %77, %78
  %80 = icmp sle i32 %75, %79
  br i1 %80, label %81, label %95

81:                                               ; preds = %74
  %82 = load i32, i32* %7, align 4
  %83 = add nsw i32 %82, 1
  store i32 %83, i32* %7, align 4
  %84 = load i32, i32* %4, align 4
  %85 = sext i32 %84 to i64
  %86 = getelementptr inbounds [100 x [100 x i32]], [100 x [100 x i32]]* %8, i64 0, i64 %85
  %87 = load i32, i32* %5, align 4
  %88 = sext i32 %87 to i64
  %89 = getelementptr inbounds [100 x i32], [100 x i32]* %86, i64 0, i64 %88
  %90 = load i32, i32* %89, align 4
  %91 = call i32 (i8*, ...) @printf(i8* getelementptr inbounds ([4 x i8], [4 x i8]* @.str.3, i64 0, i64 0), i32 %90)
  br label %92

92:                                               ; preds = %81
  %93 = load i32, i32* %4, align 4
  %94 = add nsw i32 %93, 1
  store i32 %94, i32* %4, align 4
  br label %74

95:                                               ; preds = %74
  %96 = load i32, i32* %7, align 4
  %97 = load i32, i32* %3, align 4
  %98 = load i32, i32* %2, align 4
  %99 = mul nsw i32 %97, %98
  %100 = icmp eq i32 %96, %99
  br i1 %100, label %101, label %102

101:                                              ; preds = %95
  br label %172

102:                                              ; preds = %95
  %103 = load i32, i32* %3, align 4
  %104 = sub nsw i32 %103, 1
  %105 = load i32, i32* %6, align 4
  %106 = sub nsw i32 %104, %105
  store i32 %106, i32* %4, align 4
  %107 = load i32, i32* %2, align 4
  %108 = load i32, i32* %6, align 4
  %109 = sub nsw i32 %107, %108
  %110 = sub nsw i32 %109, 2
  store i32 %110, i32* %5, align 4
  br label %111

111:                                              ; preds = %126, %102
  %112 = load i32, i32* %5, align 4
  %113 = load i32, i32* %6, align 4
  %114 = icmp sge i32 %112, %113
  br i1 %114, label %115, label %129

115:                                              ; preds = %111
  %116 = load i32, i32* %7, align 4
  %117 = add nsw i32 %116, 1
  store i32 %117, i32* %7, align 4
  %118 = load i32, i32* %4, align 4
  %119 = sext i32 %118 to i64
  %120 = getelementptr inbounds [100 x [100 x i32]], [100 x [100 x i32]]* %8, i64 0, i64 %119
  %121 = load i32, i32* %5, align 4
  %122 = sext i32 %121 to i64
  %123 = getelementptr inbounds [100 x i32], [100 x i32]* %120, i64 0, i64 %122
  %124 = load i32, i32* %123, align 4
  %125 = call i32 (i8*, ...) @printf(i8* getelementptr inbounds ([4 x i8], [4 x i8]* @.str.3, i64 0, i64 0), i32 %124)
  br label %126

126:                                              ; preds = %115
  %127 = load i32, i32* %5, align 4
  %128 = add nsw i32 %127, -1
  store i32 %128, i32* %5, align 4
  br label %111

129:                                              ; preds = %111
  %130 = load i32, i32* %7, align 4
  %131 = load i32, i32* %3, align 4
  %132 = load i32, i32* %2, align 4
  %133 = mul nsw i32 %131, %132
  %134 = icmp eq i32 %130, %133
  br i1 %134, label %135, label %136

135:                                              ; preds = %129
  br label %172

136:                                              ; preds = %129
  %137 = load i32, i32* %3, align 4
  %138 = sub nsw i32 %137, 2
  %139 = load i32, i32* %6, align 4
  %140 = sub nsw i32 %138, %139
  store i32 %140, i32* %4, align 4
  %141 = load i32, i32* %6, align 4
  store i32 %141, i32* %5, align 4
  br label %142

142:                                              ; preds = %158, %136
  %143 = load i32, i32* %4, align 4
  %144 = load i32, i32* %6, align 4
  %145 = add nsw i32 %144, 1
  %146 = icmp sge i32 %143, %145
  br i1 %146, label %147, label %161

147:                                              ; preds = %142
  %148 = load i32, i32* %7, align 4
  %149 = add nsw i32 %148, 1
  store i32 %149, i32* %7, align 4
  %150 = load i32, i32* %4, align 4
  %151 = sext i32 %150 to i64
  %152 = getelementptr inbounds [100 x [100 x i32]], [100 x [100 x i32]]* %8, i64 0, i64 %151
  %153 = load i32, i32* %5, align 4
  %154 = sext i32 %153 to i64
  %155 = getelementptr inbounds [100 x i32], [100 x i32]* %152, i64 0, i64 %154
  %156 = load i32, i32* %155, align 4
  %157 = call i32 (i8*, ...) @printf(i8* getelementptr inbounds ([4 x i8], [4 x i8]* @.str.3, i64 0, i64 0), i32 %156)
  br label %158

158:                                              ; preds = %147
  %159 = load i32, i32* %4, align 4
  %160 = add nsw i32 %159, -1
  store i32 %160, i32* %4, align 4
  br label %142

161:                                              ; preds = %142
  %162 = load i32, i32* %7, align 4
  %163 = load i32, i32* %3, align 4
  %164 = load i32, i32* %2, align 4
  %165 = mul nsw i32 %163, %164
  %166 = icmp eq i32 %162, %165
  br i1 %166, label %167, label %168

167:                                              ; preds = %161
  br label %172

168:                                              ; preds = %161
  br label %169

169:                                              ; preds = %168
  %170 = load i32, i32* %6, align 4
  %171 = add nsw i32 %170, 1
  store i32 %171, i32* %6, align 4
  br label %36

172:                                              ; preds = %167, %135, %101, %66
  ret i32 0
}

declare dso_local i32 @__isoc99_scanf(i8*, ...) #1

declare dso_local i32 @printf(i8*, ...) #1


!llvm.module.flags = !{!0}
!llvm.ident = !{!1}

!0 = !{i32 1, !"wchar_size", i32 4}
!1 = !{!"clang version 10.0.0-4ubuntu1 "}
